target datalayout = "e-m:e-p270:32:32-p271:32:32-p272:64:64-i64:64-i128:128-f80:128-n8:16:32:64-S128"
target triple = "x86_64-pc-linux-gnu"

%struct._generic_N_Vector = type { ptr, ptr, ptr }
%struct._SUNQRData = type { ptr, ptr, ptr }

; Function Attrs: nounwind uwtable
define i32 @SUNQRAdd_CGS2(ptr noundef %0, ptr noundef %1, ptr noundef %2, i32 noundef %3, i32 noundef %4, ptr noundef %5) #0 {
  %7 = alloca ptr, align 8
  %8 = alloca ptr, align 8
  %9 = alloca ptr, align 8
  %10 = alloca i32, align 4
  %11 = alloca i32, align 4
  %12 = alloca ptr, align 8
  %13 = alloca ptr, align 8
  %14 = alloca i64, align 8
  %15 = alloca ptr, align 8
  store ptr %0, ptr %7, align 8, !tbaa !3
  store ptr %1, ptr %8, align 8, !tbaa !12
  store ptr %2, ptr %9, align 8, !tbaa !14
  store i32 %3, ptr %10, align 4, !tbaa !10
  store i32 %4, ptr %11, align 4, !tbaa !10
  store ptr %5, ptr %12, align 8, !tbaa !23
  call void @llvm.lifetime.start.p0(i64 8, ptr %13) #5
  %16 = load ptr, ptr %7, align 8, !tbaa !3
  %17 = getelementptr inbounds ptr, ptr %16, i64 0
  %18 = load ptr, ptr %17, align 8, !tbaa !14
  %19 = getelementptr inbounds nuw %struct._generic_N_Vector, ptr %18, i32 0, i32 2
  %20 = load ptr, ptr %19, align 8, !tbaa !16
  store ptr %20, ptr %13, align 8, !tbaa !20
  call void @llvm.lifetime.start.p0(i64 8, ptr %14) #5
  call void @llvm.lifetime.start.p0(i64 8, ptr %15) #5
  %21 = load ptr, ptr %12, align 8, !tbaa !23
  store ptr %21, ptr %15, align 8, !tbaa !24
  %22 = load ptr, ptr %9, align 8, !tbaa !14
  %23 = load ptr, ptr %15, align 8, !tbaa !24
  %24 = getelementptr inbounds nuw %struct._SUNQRData, ptr %23, i32 0, i32 0
  %25 = load ptr, ptr %24, align 8, !tbaa !26
  call void @N_VScale(double noundef 1.000000e+00, ptr noundef %22, ptr noundef %25)
  %26 = load i32, ptr %10, align 4, !tbaa !10
  %27 = icmp sgt i32 %26, 0
  br i1 %27, label %28, label %127

28:                                               ; preds = %6
  %29 = load i32, ptr %10, align 4, !tbaa !10
  %30 = load ptr, ptr %15, align 8, !tbaa !24
  %31 = getelementptr inbounds nuw %struct._SUNQRData, ptr %30, i32 0, i32 0
  %32 = load ptr, ptr %31, align 8, !tbaa !26
  %33 = load ptr, ptr %7, align 8, !tbaa !3
  %34 = load ptr, ptr %8, align 8, !tbaa !12
  %35 = load i32, ptr %10, align 4, !tbaa !10
  %36 = load i32, ptr %11, align 4, !tbaa !10
  %37 = mul nsw i32 %35, %36
  %38 = sext i32 %37 to i64
  %39 = getelementptr inbounds double, ptr %34, i64 %38
  %40 = call i32 @N_VDotProdMulti(i32 noundef %29, ptr noundef %32, ptr noundef %33, ptr noundef %39)
  %41 = load i32, ptr %10, align 4, !tbaa !10
  %42 = load ptr, ptr %8, align 8, !tbaa !12
  %43 = load i32, ptr %10, align 4, !tbaa !10
  %44 = load i32, ptr %11, align 4, !tbaa !10
  %45 = mul nsw i32 %43, %44
  %46 = sext i32 %45 to i64
  %47 = getelementptr inbounds double, ptr %42, i64 %46
  %48 = load ptr, ptr %7, align 8, !tbaa !3
  %49 = load ptr, ptr %15, align 8, !tbaa !24
  %50 = getelementptr inbounds nuw %struct._SUNQRData, ptr %49, i32 0, i32 1
  %51 = load ptr, ptr %50, align 8, !tbaa !31
  %52 = call i32 @N_VLinearCombination(i32 noundef %41, ptr noundef %47, ptr noundef %48, ptr noundef %51)
  %53 = load ptr, ptr %15, align 8, !tbaa !24
  %54 = getelementptr inbounds nuw %struct._SUNQRData, ptr %53, i32 0, i32 0
  %55 = load ptr, ptr %54, align 8, !tbaa !26
  %56 = load ptr, ptr %15, align 8, !tbaa !24
  %57 = getelementptr inbounds nuw %struct._SUNQRData, ptr %56, i32 0, i32 1
  %58 = load ptr, ptr %57, align 8, !tbaa !31
  %59 = load ptr, ptr %15, align 8, !tbaa !24
  %60 = getelementptr inbounds nuw %struct._SUNQRData, ptr %59, i32 0, i32 1
  %61 = load ptr, ptr %60, align 8, !tbaa !31
  call void @N_VLinearSum(double noundef 1.000000e+00, ptr noundef %55, double noundef -1.000000e+00, ptr noundef %58, ptr noundef %61)
  %62 = load i32, ptr %10, align 4, !tbaa !10
  %63 = load ptr, ptr %15, align 8, !tbaa !24
  %64 = getelementptr inbounds nuw %struct._SUNQRData, ptr %63, i32 0, i32 1
  %65 = load ptr, ptr %64, align 8, !tbaa !31
  %66 = load ptr, ptr %7, align 8, !tbaa !3
  %67 = load ptr, ptr %15, align 8, !tbaa !24
  %68 = getelementptr inbounds nuw %struct._SUNQRData, ptr %67, i32 0, i32 2
  %69 = load ptr, ptr %68, align 8, !tbaa !30
  %70 = call i32 @N_VDotProdMulti(i32 noundef %62, ptr noundef %65, ptr noundef %66, ptr noundef %69)
  %71 = load i32, ptr %10, align 4, !tbaa !10
  %72 = load ptr, ptr %15, align 8, !tbaa !24
  %73 = getelementptr inbounds nuw %struct._SUNQRData, ptr %72, i32 0, i32 2
  %74 = load ptr, ptr %73, align 8, !tbaa !30
  %75 = load ptr, ptr %7, align 8, !tbaa !3
  %76 = load ptr, ptr %7, align 8, !tbaa !3
  %77 = load i32, ptr %10, align 4, !tbaa !10
  %78 = sext i32 %77 to i64
  %79 = getelementptr inbounds ptr, ptr %76, i64 %78
  %80 = load ptr, ptr %79, align 8, !tbaa !14
  %81 = call i32 @N_VLinearCombination(i32 noundef %71, ptr noundef %74, ptr noundef %75, ptr noundef %80)
  %82 = load ptr, ptr %15, align 8, !tbaa !24
  %83 = getelementptr inbounds nuw %struct._SUNQRData, ptr %82, i32 0, i32 1
  %84 = load ptr, ptr %83, align 8, !tbaa !31
  %85 = load ptr, ptr %7, align 8, !tbaa !3
  %86 = load i32, ptr %10, align 4, !tbaa !10
  %87 = sext i32 %86 to i64
  %88 = getelementptr inbounds ptr, ptr %85, i64 %87
  %89 = load ptr, ptr %88, align 8, !tbaa !14
  %90 = load ptr, ptr %15, align 8, !tbaa !24
  %91 = getelementptr inbounds nuw %struct._SUNQRData, ptr %90, i32 0, i32 0
  %92 = load ptr, ptr %91, align 8, !tbaa !26
  call void @N_VLinearSum(double noundef 1.000000e+00, ptr noundef %84, double noundef -1.000000e+00, ptr noundef %89, ptr noundef %92)
  store i64 0, ptr %14, align 8, !tbaa !28
  br label %93

93:                                               ; preds = %123, %28
  %94 = load i64, ptr %14, align 8, !tbaa !28
  %95 = load i32, ptr %10, align 4, !tbaa !10
  %96 = sext i32 %95 to i64
  %97 = icmp slt i64 %94, %96
  br i1 %97, label %98, label %126

98:                                               ; preds = %93
  %99 = load ptr, ptr %8, align 8, !tbaa !12
  %100 = load i32, ptr %10, align 4, !tbaa !10
  %101 = load i32, ptr %11, align 4, !tbaa !10
  %102 = mul nsw i32 %100, %101
  %103 = sext i32 %102 to i64
  %104 = load i64, ptr %14, align 8, !tbaa !28
  %105 = add nsw i64 %103, %104
  %106 = getelementptr inbounds double, ptr %99, i64 %105
  %107 = load double, ptr %106, align 8, !tbaa !21
  %108 = load ptr, ptr %15, align 8, !tbaa !24
  %109 = getelementptr inbounds nuw %struct._SUNQRData, ptr %108, i32 0, i32 2
  %110 = load ptr, ptr %109, align 8, !tbaa !30
  %111 = load i64, ptr %14, align 8, !tbaa !28
  %112 = getelementptr inbounds double, ptr %110, i64 %111
  %113 = load double, ptr %112, align 8, !tbaa !21
  %114 = fadd double %107, %113
  %115 = load ptr, ptr %8, align 8, !tbaa !12
  %116 = load i32, ptr %10, align 4, !tbaa !10
  %117 = load i32, ptr %11, align 4, !tbaa !10
  %118 = mul nsw i32 %116, %117
  %119 = sext i32 %118 to i64
  %120 = load i64, ptr %14, align 8, !tbaa !28
  %121 = add nsw i64 %119, %120
  %122 = getelementptr inbounds double, ptr %115, i64 %121
  store double %114, ptr %122, align 8, !tbaa !21
  br label %123

123:                                              ; preds = %98
  %124 = load i64, ptr %14, align 8, !tbaa !28
  %125 = add nsw i64 %124, 1
  store i64 %125, ptr %14, align 8, !tbaa !28
  br label %93

126:                                              ; preds = %93
  br label %127

127:                                              ; preds = %126, %6
  %128 = load ptr, ptr %15, align 8, !tbaa !24
  %129 = getelementptr inbounds nuw %struct._SUNQRData, ptr %128, i32 0, i32 0
  %130 = load ptr, ptr %129, align 8, !tbaa !26
  %131 = load ptr, ptr %15, align 8, !tbaa !24
  %132 = getelementptr inbounds nuw %struct._SUNQRData, ptr %131, i32 0, i32 0
  %133 = load ptr, ptr %132, align 8, !tbaa !26
  %134 = call double @N_VDotProd(ptr noundef %130, ptr noundef %133)
  %135 = load ptr, ptr %8, align 8, !tbaa !12
  %136 = load i32, ptr %10, align 4, !tbaa !10
  %137 = load i32, ptr %11, align 4, !tbaa !10
  %138 = mul nsw i32 %136, %137
  %139 = load i32, ptr %10, align 4, !tbaa !10
  %140 = add nsw i32 %138, %139
  %141 = sext i32 %140 to i64
  %142 = getelementptr inbounds double, ptr %135, i64 %141
  store double %134, ptr %142, align 8, !tbaa !21
  %143 = load ptr, ptr %8, align 8, !tbaa !12
  %144 = load i32, ptr %10, align 4, !tbaa !10
  %145 = load i32, ptr %11, align 4, !tbaa !10
  %146 = mul nsw i32 %144, %145
  %147 = load i32, ptr %10, align 4, !tbaa !10
  %148 = add nsw i32 %146, %147
  %149 = sext i32 %148 to i64
  %150 = getelementptr inbounds double, ptr %143, i64 %149
  %151 = load double, ptr %150, align 8, !tbaa !21
  %152 = fcmp ole double %151, 0.000000e+00
  br i1 %152, label %153, label %154

153:                                              ; preds = %127
  br label %165

154:                                              ; preds = %127
  %155 = load ptr, ptr %8, align 8, !tbaa !12
  %156 = load i32, ptr %10, align 4, !tbaa !10
  %157 = load i32, ptr %11, align 4, !tbaa !10
  %158 = mul nsw i32 %156, %157
  %159 = load i32, ptr %10, align 4, !tbaa !10
  %160 = add nsw i32 %158, %159
  %161 = sext i32 %160 to i64
  %162 = getelementptr inbounds double, ptr %155, i64 %161
  %163 = load double, ptr %162, align 8, !tbaa !21
  %164 = call double @sqrt(double noundef %163) #5, !tbaa !10
  br label %165

165:                                              ; preds = %154, %153
  %166 = phi double [ 0.000000e+00, %153 ], [ %164, %154 ]
  %167 = load ptr, ptr %8, align 8, !tbaa !12
  %168 = load i32, ptr %10, align 4, !tbaa !10
  %169 = load i32, ptr %11, align 4, !tbaa !10
  %170 = mul nsw i32 %168, %169
  %171 = load i32, ptr %10, align 4, !tbaa !10
  %172 = add nsw i32 %170, %171
  %173 = sext i32 %172 to i64
  %174 = getelementptr inbounds double, ptr %167, i64 %173
  store double %166, ptr %174, align 8, !tbaa !21
  %175 = load ptr, ptr %8, align 8, !tbaa !12
  %176 = load i32, ptr %10, align 4, !tbaa !10
  %177 = load i32, ptr %11, align 4, !tbaa !10
  %178 = mul nsw i32 %176, %177
  %179 = load i32, ptr %10, align 4, !tbaa !10
  %180 = add nsw i32 %178, %179
  %181 = sext i32 %180 to i64
  %182 = getelementptr inbounds double, ptr %175, i64 %181
  %183 = load double, ptr %182, align 8, !tbaa !21
  %184 = fdiv double 1.000000e+00, %183
  %185 = load ptr, ptr %15, align 8, !tbaa !24
  %186 = getelementptr inbounds nuw %struct._SUNQRData, ptr %185, i32 0, i32 0
  %187 = load ptr, ptr %186, align 8, !tbaa !26
  %188 = load ptr, ptr %7, align 8, !tbaa !3
  %189 = load i32, ptr %10, align 4, !tbaa !10
  %190 = sext i32 %189 to i64
  %191 = getelementptr inbounds ptr, ptr %188, i64 %190
  %192 = load ptr, ptr %191, align 8, !tbaa !14
  call void @N_VScale(double noundef %184, ptr noundef %187, ptr noundef %192)
  call void @llvm.lifetime.end.p0(i64 8, ptr %15) #5
  call void @llvm.lifetime.end.p0(i64 8, ptr %14) #5
  call void @llvm.lifetime.end.p0(i64 8, ptr %13) #5
  ret i32 0
}