; Function Attrs: nounwind uwtable
define noundef i32 @SUNQRAdd_CGS2(ptr noundef %0, ptr noundef %1, ptr noundef %2, i32 noundef %3, i32 noundef %4, ptr noundef readonly captures(none) %5) local_unnamed_addr #0 {
  %7 = load ptr, ptr %5, align 8, !tbaa !14
  tail call void @N_VScale(double noundef 1.000000e+00, ptr noundef %2, ptr noundef %7) #7
  %8 = icmp sgt i32 %3, 0
  br i1 %8, label %9, label %.loopexit

9:                                                ; preds = %6
  %10 = load ptr, ptr %5, align 8, !tbaa !14
  %11 = mul nsw i32 %4, %3
  %12 = sext i32 %11 to i64
  %13 = getelementptr double, ptr %1, i64 %12
  %14 = tail call i32 @N_VDotProdMulti(i32 noundef %3, ptr noundef %10, ptr noundef %0, ptr noundef %13) #7
  %15 = getelementptr inbounds nuw i8, ptr %5, i64 8
  %16 = load ptr, ptr %15, align 8, !tbaa !17
  %17 = tail call i32 @N_VLinearCombination(i32 noundef %3, ptr noundef %13, ptr noundef %0, ptr noundef %16) #7
  %18 = load ptr, ptr %5, align 8, !tbaa !14
  %19 = load ptr, ptr %15, align 8, !tbaa !17
  tail call void @N_VLinearSum(double noundef 1.000000e+00, ptr noundef %18, double noundef -1.000000e+00, ptr noundef %19, ptr noundef %19) #7
  %20 = load ptr, ptr %15, align 8, !tbaa !17
  %21 = getelementptr inbounds nuw i8, ptr %5, i64 16
  %22 = load ptr, ptr %21, align 8, !tbaa !16
  %23 = tail call i32 @N_VDotProdMulti(i32 noundef %3, ptr noundef %20, ptr noundef %0, ptr noundef %22) #7
  %24 = load ptr, ptr %21, align 8, !tbaa !16
  %25 = zext nneg i32 %3 to i64
  %26 = getelementptr inbounds nuw ptr, ptr %0, i64 %25
  %27 = load ptr, ptr %26, align 8, !tbaa !3
  %28 = tail call i32 @N_VLinearCombination(i32 noundef %3, ptr noundef %24, ptr noundef %0, ptr noundef %27) #7
  %29 = load ptr, ptr %15, align 8, !tbaa !17
  %30 = load ptr, ptr %26, align 8, !tbaa !3
  %31 = load ptr, ptr %5, align 8, !tbaa !14
  tail call void @N_VLinearSum(double noundef 1.000000e+00, ptr noundef %29, double noundef -1.000000e+00, ptr noundef %30, ptr noundef %31) #7
  %32 = load ptr, ptr %21, align 8, !tbaa !16
  br label %33

33:                                               ; preds = %9, %33
  %.072 = phi i64 [ 0, %9 ], [ %38, %33 ]
  %gep = getelementptr double, ptr %13, i64 %.072
  %34 = load double, ptr %gep, align 8, !tbaa !12
  %35 = getelementptr inbounds nuw double, ptr %32, i64 %.072
  %36 = load double, ptr %35, align 8, !tbaa !12
  %37 = fadd double %34, %36
  store double %37, ptr %gep, align 8, !tbaa !12
  %38 = add nuw nsw i64 %.072, 1
  %exitcond.not = icmp eq i64 %38, %25
  br i1 %exitcond.not, label %.loopexit, label %33

.loopexit:                                        ; preds = %33, %6
  %39 = load ptr, ptr %5, align 8, !tbaa !14
  %40 = tail call double @N_VDotProd(ptr noundef %39, ptr noundef %39) #7
  %41 = fcmp ugt double %40, 0.000000e+00
  br i1 %41, label %42, label %44

42:                                               ; preds = %.loopexit
  %43 = tail call double @sqrt(double noundef %40) #7, !tbaa !8
  br label %44

44:                                               ; preds = %.loopexit, %42
  %45 = phi double [ %43, %42 ], [ 0.000000e+00, %.loopexit ]
  %46 = add i32 %4, 1
  %47 = mul i32 %46, %3
  %48 = sext i32 %47 to i64
  %49 = getelementptr inbounds double, ptr %1, i64 %48
  store double %45, ptr %49, align 8, !tbaa !12
  %50 = fdiv double 1.000000e+00, %45
  %51 = load ptr, ptr %5, align 8, !tbaa !14
  %52 = sext i32 %3 to i64
  %53 = getelementptr inbounds ptr, ptr %0, i64 %52
  %54 = load ptr, ptr %53, align 8, !tbaa !3
  tail call void @N_VScale(double noundef %50, ptr noundef %51, ptr noundef %54) #7
  ret i32 0
}